; Function Attrs: mustprogress nounwind uwtable
define dso_local void @_ZN10cmCTestCVSD2Ev(ptr noundef nonnull align 8 dereferenceable(440) %0) unnamed_addr #4 align 2 personality ptr @__gxx_personality_v0 {
  store ptr getelementptr inbounds ({ [10 x ptr] }, ptr @_ZTV10cmCTestCVS, i64 0, i32 0, i64 2), ptr %0, align 8
  %2 = getelementptr inbounds i8, ptr %0, i64 392
  %3 = getelementptr inbounds i8, ptr %0, i64 408
  %4 = load ptr, ptr %3, align 8
  invoke void @_ZNSt8_Rb_treeINSt7__cxx1112basic_stringIcSt11char_traitsIcESaIcEEESt4pairIKS5_N10cmCTestCVS9DirectoryEESt10_Select1stISA_ESt4lessIS5_ESaISA_EE8_M_eraseEPSt13_Rb_tree_nodeISA_E(ptr noundef nonnull align 8 dereferenceable(48) %2, ptr noundef %4)
          to label %_ZNSt3mapINSt7__cxx1112basic_stringIcSt11char_traitsIcESaIcEEEN10cmCTestCVS9DirectoryESt4lessIS5_ESaISt4pairIKS5_S7_EEED2Ev.exit unwind label %5

5:                                                ; preds = %1
  %6 = landingpad { ptr, i32 }
          catch ptr null
  %7 = extractvalue { ptr, i32 } %6, 0
  tail call void @__clang_call_terminate(ptr %7) #16
  unreachable

_ZNSt3mapINSt7__cxx1112basic_stringIcSt11char_traitsIcESaIcEEEN10cmCTestCVS9DirectoryESt4lessIS5_ESaISt4pairIKS5_S7_EEED2Ev.exit: ; preds = %1
  tail call void @_ZN9cmCTestVCD2Ev(ptr noundef nonnull align 8 dereferenceable(388) %0) #17
  ret void
}